target datalayout = "e-m:e-p270:32:32-p271:32:32-p272:64:64-i64:64-i128:128-f80:128-n8:16:32:64-S128"
target triple = "x86_64-pc-linux-gnu"

%struct.DdManager = type { %struct.DdNode, ptr, ptr, ptr, ptr, ptr, ptr, ptr, i32, i32, double, double, double, i32, i32, i32, i32, i32, i32, ptr, ptr, %struct.DdSubtable, i32, i32, i32, i32, i32, i32, i32, double, i32, i32, i32, ptr, i64, double, i32, ptr, ptr, ptr, ptr, ptr, ptr, ptr, i32, ptr, ptr, ptr, ptr, ptr, ptr, i32, i32, i32, double, i32, i32, i32, i32, double, double, i32, i32, i32, i32, i32, i32, i32, i32, i32, ptr, ptr, i32, i32, i32, i32, i32, i32, ptr, ptr, ptr, ptr, ptr, ptr, ptr, ptr, i32, i64, i64, i64, i32, i64, i64, double, double, double, double, double, double, i32, ptr, ptr, i64 }
%struct.DdNode = type { i32, i32, ptr, %union.anon, i64 }
%union.anon = type { %struct.DdChildren }
%struct.DdChildren = type { ptr, ptr }
%struct.DdSubtable = type { ptr, i32, i32, i32, i32, i32, i32, i32, i32, i32, i32, i32 }
%struct.DdCache = type { ptr, ptr, i64, ptr, i32 }

; Function Attrs: nounwind uwtable
define void @cuddCacheFlush(ptr noundef %0) #0 {
  %2 = alloca ptr, align 8
  %3 = alloca i32, align 4
  %4 = alloca i32, align 4
  %5 = alloca ptr, align 8
  store ptr %0, ptr %2, align 8, !tbaa !3
  call void @llvm.lifetime.start.p0(i64 4, ptr %3) #6
  call void @llvm.lifetime.start.p0(i64 4, ptr %4) #6
  call void @llvm.lifetime.start.p0(i64 8, ptr %5) #6
  %6 = load ptr, ptr %2, align 8, !tbaa !3
  %7 = getelementptr inbounds nuw %struct.DdManager, ptr %6, i32 0, i32 8
  %8 = load i32, ptr %7, align 8, !tbaa !33
  store i32 %8, ptr %4, align 4, !tbaa !8
  %9 = load ptr, ptr %2, align 8, !tbaa !3
  %10 = getelementptr inbounds nuw %struct.DdManager, ptr %9, i32 0, i32 7
  %11 = load ptr, ptr %10, align 8, !tbaa !31
  store ptr %11, ptr %5, align 8, !tbaa !54
  store i32 0, ptr %3, align 4, !tbaa !8
  br label %12

12:                                               ; preds = %35, %1
  %13 = load i32, ptr %3, align 4, !tbaa !8
  %14 = load i32, ptr %4, align 4, !tbaa !8
  %15 = icmp slt i32 %13, %14
  br i1 %15, label %16, label %38

16:                                               ; preds = %12
  %17 = load ptr, ptr %5, align 8, !tbaa !54
  %18 = load i32, ptr %3, align 4, !tbaa !8
  %19 = sext i32 %18 to i64
  %20 = getelementptr inbounds %struct.DdCache, ptr %17, i64 %19
  %21 = getelementptr inbounds nuw %struct.DdCache, ptr %20, i32 0, i32 3
  %22 = load ptr, ptr %21, align 8, !tbaa !48
  %23 = icmp ne ptr %22, null
  %24 = zext i1 %23 to i32
  %25 = sitofp i32 %24 to double
  %26 = load ptr, ptr %2, align 8, !tbaa !3
  %27 = getelementptr inbounds nuw %struct.DdManager, ptr %26, i32 0, i32 98
  %28 = load double, ptr %27, align 8, !tbaa !45
  %29 = fadd double %28, %25
  store double %29, ptr %27, align 8, !tbaa !45
  %30 = load ptr, ptr %5, align 8, !tbaa !54
  %31 = load i32, ptr %3, align 4, !tbaa !8
  %32 = sext i32 %31 to i64
  %33 = getelementptr inbounds %struct.DdCache, ptr %30, i64 %32
  %34 = getelementptr inbounds nuw %struct.DdCache, ptr %33, i32 0, i32 3
  store ptr null, ptr %34, align 8, !tbaa !48
  br label %35

35:                                               ; preds = %16
  %36 = load i32, ptr %3, align 4, !tbaa !8
  %37 = add nsw i32 %36, 1
  store i32 %37, ptr %3, align 4, !tbaa !8
  br label %12, !llvm.loop !65

38:                                               ; preds = %12
  %39 = load ptr, ptr %2, align 8, !tbaa !3
  %40 = getelementptr inbounds nuw %struct.DdManager, ptr %39, i32 0, i32 96
  %41 = load double, ptr %40, align 8, !tbaa !43
  %42 = load ptr, ptr %2, align 8, !tbaa !3
  %43 = getelementptr inbounds nuw %struct.DdManager, ptr %42, i32 0, i32 97
  store double %41, ptr %43, align 8, !tbaa !44
  call void @llvm.lifetime.end.p0(i64 8, ptr %5) #6
  call void @llvm.lifetime.end.p0(i64 4, ptr %4) #6
  call void @llvm.lifetime.end.p0(i64 4, ptr %3) #6
  ret void
}