; Function Attrs: nofree norecurse nosync nounwind memory(readwrite, inaccessiblemem: none) uwtable
define void @cuddCacheFlush(ptr noundef captures(none) %0) local_unnamed_addr #10 {
  %2 = getelementptr inbounds nuw i8, ptr %0, i64 96
  %3 = load i32, ptr %2, align 8, !tbaa !30
  %4 = getelementptr inbounds nuw i8, ptr %0, i64 88
  %5 = load ptr, ptr %4, align 8, !tbaa !28
  %6 = icmp sgt i32 %3, 0
  br i1 %6, label %.lr.ph, label %15

.lr.ph:                                           ; preds = %1
  %7 = getelementptr inbounds nuw i8, ptr %0, i64 720
  %.promoted = load double, ptr %7, align 8, !tbaa !56
  %wide.trip.count = zext nneg i32 %3 to i64
  br label %8

8:                                                ; preds = %.lr.ph, %8
  %indvars.iv = phi i64 [ 0, %.lr.ph ], [ %indvars.iv.next, %8 ]
  %9 = phi double [ %.promoted, %.lr.ph ], [ %14, %8 ]
  %10 = getelementptr inbounds nuw %struct.DdCache, ptr %5, i64 %indvars.iv, i32 3
  %11 = load ptr, ptr %10, align 8, !tbaa !41
  %12 = icmp ne ptr %11, null
  %13 = uitofp i1 %12 to double
  %14 = fadd double %9, %13
  store ptr null, ptr %10, align 8, !tbaa !41
  %indvars.iv.next = add nuw nsw i64 %indvars.iv, 1
  %exitcond.not = icmp eq i64 %indvars.iv.next, %wide.trip.count
  br i1 %exitcond.not, label %._crit_edge, label %8, !llvm.loop !57

._crit_edge:                                      ; preds = %8
  store double %14, ptr %7, align 8, !tbaa !56
  br label %15

15:                                               ; preds = %._crit_edge, %1
  %16 = getelementptr inbounds nuw i8, ptr %0, i64 704
  %17 = load double, ptr %16, align 8, !tbaa !44
  %18 = getelementptr inbounds nuw i8, ptr %0, i64 712
  store double %17, ptr %18, align 8, !tbaa !53
  ret void
}